; Function Attrs: nounwind uwtable
define ptr @l_Lean_Meta_DiscrTree_Trie_size___rarg___boxed(ptr noundef %0) #2 {
  %2 = getelementptr inbounds nuw i8, ptr %0, i64 8
  %3 = load ptr, ptr %2, align 8, !tbaa !9
  %4 = getelementptr inbounds nuw i8, ptr %0, i64 16
  %5 = load ptr, ptr %4, align 8, !tbaa !9
  %6 = getelementptr i8, ptr %3, i64 8
  %.val29.i = load i64, ptr %6, align 8, !tbaa !14
  %7 = shl i64 %.val29.i, 1
  %8 = or disjoint i64 %7, 1
  %9 = inttoptr i64 %8 to ptr
  %10 = getelementptr i8, ptr %5, i64 8
  %.val.i = load i64, ptr %10, align 8, !tbaa !14
  %.mask.i = and i64 %.val.i, 9223372036854775807
  %.not.i3 = icmp eq i64 %.mask.i, 0
  br i1 %.not.i3, label %l_Lean_Meta_DiscrTree_Trie_size___rarg.exit, label %lean_dec.exit.i

lean_dec.exit.i:                                  ; preds = %1
  %11 = tail call ptr @l_Array_foldlMUnsafe_fold___at_Lean_Meta_DiscrTree_Trie_size___spec__1___rarg(ptr noundef nonnull %5, i64 noundef 0, i64 noundef %.mask.i, ptr noundef nonnull %9) #9
  br label %l_Lean_Meta_DiscrTree_Trie_size___rarg.exit

l_Lean_Meta_DiscrTree_Trie_size___rarg.exit:      ; preds = %1, %lean_dec.exit.i
  %.0.i = phi ptr [ %11, %lean_dec.exit.i ], [ %9, %1 ]
  %12 = ptrtoint ptr %0 to i64
  %13 = and i64 %12, 1
  %.not = icmp eq i64 %13, 0
  br i1 %.not, label %14, label %lean_dec.exit

14:                                               ; preds = %l_Lean_Meta_DiscrTree_Trie_size___rarg.exit
  %15 = load i32, ptr %0, align 4, !tbaa !4
  %16 = icmp sgt i32 %15, 1
  br i1 %16, label %17, label %19, !prof !11

17:                                               ; preds = %14
  %18 = add nsw i32 %15, -1
  store i32 %18, ptr %0, align 4, !tbaa !4
  br label %lean_dec.exit

19:                                               ; preds = %14
  %.not.i = icmp eq i32 %15, 0
  br i1 %.not.i, label %lean_dec.exit, label %20

20:                                               ; preds = %19
  tail call void @lean_dec_ref_cold(ptr noundef nonnull %0) #7
  br label %lean_dec.exit

lean_dec.exit:                                    ; preds = %20, %19, %17, %l_Lean_Meta_DiscrTree_Trie_size___rarg.exit
  ret ptr %.0.i
}